target datalayout = "e-m:e-p270:32:32-p271:32:32-p272:64:64-i64:64-i128:128-f80:128-n8:16:32:64-S128"
target triple = "x86_64-pc-linux-gnu"

%struct.Curl_easy = type { i32, i64, i64, ptr, %struct.Curl_llist_node, %struct.Curl_llist_node, i32, i32, %struct.Curl_message, %struct.easy_pollset, %struct.Names, ptr, ptr, ptr, ptr, %struct.SingleRequest, %struct.UserDefined, ptr, ptr, ptr, %struct.Progress, %struct.UrlState, ptr, %struct.PureInfo, %struct.curl_tlssessioninfo }
%struct.Curl_llist_node = type { ptr, ptr, ptr, ptr }
%struct.Curl_message = type { %struct.Curl_llist_node, %struct.CURLMsg }
%struct.CURLMsg = type { i32, ptr, %union.anon }
%union.anon = type { ptr }
%struct.easy_pollset = type { [5 x i32], i32, [5 x i8] }
%struct.Names = type { ptr, i32 }
%struct.SingleRequest = type <{ i64, i64, i64, i64, %struct.curltime, i32, i32, i32, i32, i64, i32, i32, i8, i8, [2 x i8], i32, ptr, ptr, %struct.bufq, i64, i64, ptr, ptr, %union.anon.0, ptr, i8, i32, [3 x i8] }>
%struct.curltime = type { i64, i32 }
%struct.bufq = type { ptr, ptr, ptr, ptr, i64, i64, i64, i32 }
%union.anon.0 = type { ptr }
%struct.UserDefined = type <{ ptr, ptr, ptr, ptr, ptr, ptr, i64, i64, i64, ptr, ptr, i64, ptr, ptr, ptr, ptr, ptr, ptr, ptr, ptr, ptr, ptr, ptr, ptr, ptr, ptr, ptr, ptr, ptr, ptr, ptr, ptr, ptr, ptr, ptr, i64, i64, i64, i64, i64, i64, i64, i64, i64, ptr, ptr, %struct.curl_mimepart, ptr, ptr, ptr, i64, %struct.ssl_config_data, %struct.ssl_config_data, ptr, i16, i8, i8, %struct.ssl_general_config, i32, i32, i32, [4 x i8], ptr, ptr, i64, i32, i8, i8, i8, i8, ptr, ptr, ptr, i32, [4 x i8], [74 x ptr], [8 x ptr], i32, i32, i32, [4 x i8], ptr, i32, [4 x i8], ptr, ptr, ptr, ptr, ptr, i32, i32, i32, i32, i32, i32, i32, i32, i64, ptr, ptr, i64, ptr, i64, ptr, ptr, ptr, ptr, i32, i16, i16, i16, i8, i8, i8, i8, i8, i8, i8, i8, i64, [6 x i8] }>
%struct.curl_mimepart = type { ptr, ptr, i32, i32, ptr, ptr, ptr, ptr, ptr, ptr, ptr, ptr, ptr, ptr, ptr, i64, %struct.mime_state, ptr, %struct.mime_encoder_state, i64 }
%struct.mime_state = type { i32, ptr, i64 }
%struct.mime_encoder_state = type { i64, i64, i64, [256 x i8] }
%struct.ssl_config_data = type { %struct.ssl_primary_config, i64, ptr, ptr, ptr, ptr, ptr, ptr, ptr, i16 }
%struct.ssl_primary_config = type { ptr, ptr, ptr, ptr, ptr, ptr, ptr, ptr, ptr, ptr, ptr, ptr, ptr, ptr, i8, i32, i8, i8 }
%struct.ssl_general_config = type { i32 }
%struct.Progress = type { i64, %struct.pgrs_dir, %struct.pgrs_dir, i64, i64, i32, i32, i64, i64, i64, i64, i64, i64, i64, i64, i64, %struct.curltime, %struct.curltime, %struct.curltime, %struct.curltime, %struct.curltime, [6 x i64], [6 x %struct.curltime], i32, i8 }
%struct.pgrs_dir = type { i64, i64, i64, %struct.pgrs_measure }
%struct.pgrs_measure = type { %struct.curltime, i64 }
%struct.UrlState = type { %struct.curltime, i64, i64, %struct.dynbuf, ptr, i64, ptr, i32, i32, i32, ptr, i32, i64, i32, ptr, %struct.digestdata, %struct.digestdata, %struct.auth, %struct.auth, %struct.Curl_async, ptr, i8, %struct.curltime, %struct.Curl_tree, %struct.Curl_llist, [15 x %struct.time_node], ptr, ptr, i64, i64, i64, i64, [32 x i8], i64, ptr, ptr, ptr, %struct.urlpieces, ptr, ptr, ptr, ptr, ptr, i64, %struct.dynbuf, %struct.Curl_llist, [2 x %struct.curl_header], ptr, i32, ptr, ptr, %struct.store_netrc, %struct.dynamically_allocated_data, i8, i8, i8, i8, i32 }
%struct.digestdata = type { ptr, ptr, ptr, ptr, ptr, ptr, i32, i8, i8 }
%struct.auth = type { i64, i64, i64, i8 }
%struct.Curl_async = type { ptr, ptr, ptr, ptr, i32, i32, i8 }
%struct.Curl_tree = type { ptr, ptr, ptr, ptr, %struct.curltime, ptr }
%struct.time_node = type { %struct.Curl_llist_node, %struct.curltime, i32 }
%struct.urlpieces = type { ptr, ptr, ptr, ptr, ptr, ptr, ptr, ptr }
%struct.dynbuf = type { ptr, i64, i64, i64 }
%struct.Curl_llist = type { ptr, ptr, ptr, i64 }
%struct.curl_header = type { ptr, ptr, i64, i64, i32, ptr }
%struct.store_netrc = type { %struct.dynbuf, ptr, i8 }
%struct.dynamically_allocated_data = type { ptr, ptr, ptr, ptr, ptr, ptr, ptr, ptr, ptr, ptr, ptr, ptr, ptr, ptr }
%struct.PureInfo = type { i32, i32, i32, i64, i64, i64, i64, i64, i64, i64, ptr, ptr, i64, i32, %struct.ip_quadruple, i32, ptr, i32, %struct.curl_certinfo, i32, i8 }
%struct.ip_quadruple = type { [46 x i8], [46 x i8], i32, i32 }
%struct.curl_certinfo = type { i32, ptr }
%struct.curl_tlssessioninfo = type { i32, ptr }
%struct.connectdata = type { %struct.Curl_llist_node, ptr, ptr, i64, ptr, i64, ptr, ptr, %struct.hostname, ptr, ptr, %struct.hostname, %struct.proxy_info, %struct.proxy_info, %struct.ip_quadruple, %struct.ip_quadruple, ptr, ptr, ptr, ptr, ptr, %struct.curltime, %struct.curltime, %struct.curltime, [2 x i32], [2 x ptr], [2 x ptr], [2 x ptr], %struct.anon, %struct.easy_pollset, %struct.ssl_primary_config, %struct.ssl_primary_config, %struct.ConnectBits, ptr, ptr, %struct.curltime, i32, i32, %struct.Curl_llist, i32, i32, %struct.ntlmdata, %struct.ntlmdata, %union.anon.1, ptr, ptr, i16, i32, i32, i32, i32, i16, i16, i8, i8, i8, i8, i8, i8, i8 }
%struct.hostname = type { ptr, ptr, ptr, ptr }
%struct.proxy_info = type { %struct.hostname, i32, i8, ptr, ptr }
%struct.anon = type { [2 x %struct.curltime], i32 }
%struct.ConnectBits = type { i64 }
%struct.ntlmdata = type { i32, [8 x i8], i32, ptr }
%union.anon.1 = type { %struct.ftp_conn }
%struct.ftp_conn = type { %struct.pingpong, ptr, ptr, ptr, ptr, ptr, ptr, ptr, i8, i64, ptr, i64, i32, i32, i32, i32, i32, i16, i8, i8, i8, i8, i8 }
%struct.pingpong = type { i64, i8, ptr, i64, i64, %struct.curltime, i64, %struct.dynbuf, %struct.dynbuf, i64, i64, ptr, ptr }

@.str.2 = private unnamed_addr constant [6 x i8] c"%s?%s\00", align 1
@Curl_cstrdup = external global ptr, align 8
@.str.3 = private unnamed_addr constant [1 x i8] zeroinitializer, align 1
@Curl_cfree = external global ptr, align 8
@.str.4 = private unnamed_addr constant [3 x i8] c"\0D\0A\00", align 1
@.str.5 = private unnamed_addr constant [30 x i8] c"Failed sending Gopher request\00", align 1

; Function Attrs: nounwind uwtable
define internal i32 @gopher_do(ptr noundef %0, ptr noundef %1) #0 {
  %3 = alloca i32, align 4
  %4 = alloca ptr, align 8
  %5 = alloca ptr, align 8
  %6 = alloca i32, align 4
  %7 = alloca ptr, align 8
  %8 = alloca i32, align 4
  %9 = alloca ptr, align 8
  %10 = alloca ptr, align 8
  %11 = alloca ptr, align 8
  %12 = alloca ptr, align 8
  %13 = alloca ptr, align 8
  %14 = alloca i64, align 8
  %15 = alloca i64, align 8
  %16 = alloca i64, align 8
  %17 = alloca i64, align 8
  %18 = alloca i32, align 4
  %19 = alloca i32, align 4
  %20 = alloca ptr, align 8
  store ptr %0, ptr %4, align 8, !tbaa !3
  store ptr %1, ptr %5, align 8, !tbaa !8
  call void @llvm.lifetime.start.p0(i64 4, ptr %6) #4
  store i32 0, ptr %6, align 4, !tbaa !10
  call void @llvm.lifetime.start.p0(i64 8, ptr %7) #4
  %21 = load ptr, ptr %4, align 8, !tbaa !3
  %22 = getelementptr inbounds nuw %struct.Curl_easy, ptr %21, i32 0, i32 3
  %23 = load ptr, ptr %22, align 8, !tbaa !12
  store ptr %23, ptr %7, align 8, !tbaa !80
  call void @llvm.lifetime.start.p0(i64 4, ptr %8) #4
  %24 = load ptr, ptr %7, align 8, !tbaa !80
  %25 = getelementptr inbounds nuw %struct.connectdata, ptr %24, i32 0, i32 24
  %26 = getelementptr inbounds [2 x i32], ptr %25, i64 0, i64 0
  %27 = load i32, ptr %26, align 8, !tbaa !10
  store i32 %27, ptr %8, align 4, !tbaa !10
  call void @llvm.lifetime.start.p0(i64 8, ptr %9) #4
  call void @llvm.lifetime.start.p0(i64 8, ptr %10) #4
  %28 = load ptr, ptr %4, align 8, !tbaa !3
  %29 = getelementptr inbounds nuw %struct.Curl_easy, ptr %28, i32 0, i32 21
  %30 = getelementptr inbounds nuw %struct.UrlState, ptr %29, i32 0, i32 37
  %31 = getelementptr inbounds nuw %struct.urlpieces, ptr %30, i32 0, i32 6
  %32 = load ptr, ptr %31, align 8, !tbaa !81
  store ptr %32, ptr %10, align 8, !tbaa !82
  call void @llvm.lifetime.start.p0(i64 8, ptr %11) #4
  %33 = load ptr, ptr %4, align 8, !tbaa !3
  %34 = getelementptr inbounds nuw %struct.Curl_easy, ptr %33, i32 0, i32 21
  %35 = getelementptr inbounds nuw %struct.UrlState, ptr %34, i32 0, i32 37
  %36 = getelementptr inbounds nuw %struct.urlpieces, ptr %35, i32 0, i32 7
  %37 = load ptr, ptr %36, align 8, !tbaa !83
  store ptr %37, ptr %11, align 8, !tbaa !82
  call void @llvm.lifetime.start.p0(i64 8, ptr %12) #4
  store ptr null, ptr %12, align 8, !tbaa !82
  call void @llvm.lifetime.start.p0(i64 8, ptr %13) #4
  store ptr null, ptr %13, align 8, !tbaa !82
  call void @llvm.lifetime.start.p0(i64 8, ptr %14) #4
  call void @llvm.lifetime.start.p0(i64 8, ptr %15) #4
  call void @llvm.lifetime.start.p0(i64 8, ptr %16) #4
  call void @llvm.lifetime.start.p0(i64 8, ptr %17) #4
  call void @llvm.lifetime.start.p0(i64 4, ptr %18) #4
  %38 = load ptr, ptr %5, align 8, !tbaa !8
  store i8 1, ptr %38, align 1, !tbaa !84
  br label %39

39:                                               ; preds = %2
  br label %40

40:                                               ; preds = %39
  br label %41

41:                                               ; preds = %40
  %42 = load ptr, ptr %11, align 8, !tbaa !82
  %43 = icmp ne ptr %42, null
  br i1 %43, label %44, label %48

44:                                               ; preds = %41
  %45 = load ptr, ptr %10, align 8, !tbaa !82
  %46 = load ptr, ptr %11, align 8, !tbaa !82
  %47 = call ptr (ptr, ...) @curl_maprintf(ptr noundef @.str.2, ptr noundef %45, ptr noundef %46)
  store ptr %47, ptr %9, align 8, !tbaa !82
  br label %52

48:                                               ; preds = %41
  %49 = load ptr, ptr @Curl_cstrdup, align 8, !tbaa !86
  %50 = load ptr, ptr %10, align 8, !tbaa !82
  %51 = call ptr %49(ptr noundef %50)
  store ptr %51, ptr %9, align 8, !tbaa !82
  br label %52

52:                                               ; preds = %48, %44
  %53 = load ptr, ptr %9, align 8, !tbaa !82
  %54 = icmp ne ptr %53, null
  br i1 %54, label %56, label %55

55:                                               ; preds = %52
  store i32 27, ptr %3, align 4
  store i32 1, ptr %19, align 4
  br label %163

56:                                               ; preds = %52
  %57 = load ptr, ptr %9, align 8, !tbaa !82
  %58 = call i64 @strlen(ptr noundef %57) #5
  %59 = icmp ule i64 %58, 2
  br i1 %59, label %60, label %65

60:                                               ; preds = %56
  store ptr @.str.3, ptr %12, align 8, !tbaa !82
  %61 = load ptr, ptr %12, align 8, !tbaa !82
  %62 = call i64 @strlen(ptr noundef %61) #5
  store i64 %62, ptr %17, align 8, !tbaa !87
  %63 = load ptr, ptr @Curl_cfree, align 8, !tbaa !86
  %64 = load ptr, ptr %9, align 8, !tbaa !82
  call void %63(ptr noundef %64)
  br label %82

65:                                               ; preds = %56
  call void @llvm.lifetime.start.p0(i64 8, ptr %20) #4
  %66 = load ptr, ptr %9, align 8, !tbaa !82
  store ptr %66, ptr %20, align 8, !tbaa !82
  %67 = load ptr, ptr %20, align 8, !tbaa !82
  %68 = getelementptr inbounds i8, ptr %67, i64 2
  store ptr %68, ptr %20, align 8, !tbaa !82
  %69 = load ptr, ptr %20, align 8, !tbaa !82
  %70 = call i32 @Curl_urldecode(ptr noundef %69, i64 noundef 0, ptr noundef %12, ptr noundef %17, i32 noundef 4)
  store i32 %70, ptr %6, align 4, !tbaa !10
  %71 = load ptr, ptr @Curl_cfree, align 8, !tbaa !86
  %72 = load ptr, ptr %9, align 8, !tbaa !82
  call void %71(ptr noundef %72)
  %73 = load i32, ptr %6, align 4, !tbaa !10
  %74 = icmp ne i32 %73, 0
  br i1 %74, label %75, label %77

75:                                               ; preds = %65
  %76 = load i32, ptr %6, align 4, !tbaa !10
  store i32 %76, ptr %3, align 4
  store i32 1, ptr %19, align 4
  br label %79

77:                                               ; preds = %65
  %78 = load ptr, ptr %12, align 8, !tbaa !82
  store ptr %78, ptr %13, align 8, !tbaa !82
  store i32 0, ptr %19, align 4
  br label %79

79:                                               ; preds = %77, %75
  call void @llvm.lifetime.end.p0(i64 8, ptr %20) #4
  %80 = load i32, ptr %19, align 4
  switch i32 %80, label %163 [
    i32 0, label %81
  ]

81:                                               ; preds = %79
  br label %82

82:                                               ; preds = %81, %60
  %83 = load i64, ptr %17, align 8, !tbaa !87
  %84 = call i64 @curlx_uztosz(i64 noundef %83)
  store i64 %84, ptr %15, align 8, !tbaa !87
  br label %85

85:                                               ; preds = %139, %82
  %86 = load ptr, ptr %12, align 8, !tbaa !82
  %87 = call i64 @strlen(ptr noundef %86) #5
  %88 = icmp ult i64 %87, 1
  br i1 %88, label %89, label %90

89:                                               ; preds = %85
  br label %140

90:                                               ; preds = %85
  %91 = load ptr, ptr %4, align 8, !tbaa !3
  %92 = load ptr, ptr %12, align 8, !tbaa !82
  %93 = load i64, ptr %15, align 8, !tbaa !87
  %94 = call i32 @Curl_xfer_send(ptr noundef %91, ptr noundef %92, i64 noundef %93, i1 noundef zeroext false, ptr noundef %16)
  store i32 %94, ptr %6, align 4, !tbaa !10
  %95 = load i32, ptr %6, align 4, !tbaa !10
  %96 = icmp ne i32 %95, 0
  br i1 %96, label %116, label %97

97:                                               ; preds = %90
  %98 = load ptr, ptr %4, align 8, !tbaa !3
  %99 = load ptr, ptr %12, align 8, !tbaa !82
  %100 = load i64, ptr %16, align 8, !tbaa !87
  %101 = call i32 @Curl_client_write(ptr noundef %98, i32 noundef 4, ptr noundef %99, i64 noundef %100)
  store i32 %101, ptr %6, align 4, !tbaa !10
  %102 = load i32, ptr %6, align 4, !tbaa !10
  %103 = icmp ne i32 %102, 0
  br i1 %103, label %104, label %105

104:                                              ; preds = %97
  br label %140

105:                                              ; preds = %97
  %106 = load i64, ptr %16, align 8, !tbaa !87
  %107 = load i64, ptr %15, align 8, !tbaa !87
  %108 = sub i64 %107, %106
  store i64 %108, ptr %15, align 8, !tbaa !87
  %109 = load i64, ptr %16, align 8, !tbaa !87
  %110 = load ptr, ptr %12, align 8, !tbaa !82
  %111 = getelementptr inbounds nuw i8, ptr %110, i64 %109
  store ptr %111, ptr %12, align 8, !tbaa !82
  %112 = load i64, ptr %15, align 8, !tbaa !87
  %113 = icmp slt i64 %112, 1
  br i1 %113, label %114, label %115

114:                                              ; preds = %105
  br label %140

115:                                              ; preds = %105
  br label %117

116:                                              ; preds = %90
  br label %140

117:                                              ; preds = %115
  %118 = load ptr, ptr %4, align 8, !tbaa !3
  %119 = call i64 @Curl_timeleft(ptr noundef %118, ptr noundef null, i1 noundef zeroext false)
  store i64 %119, ptr %14, align 8, !tbaa !87
  %120 = load i64, ptr %14, align 8, !tbaa !87
  %121 = icmp slt i64 %120, 0
  br i1 %121, label %122, label %123

122:                                              ; preds = %117
  store i32 28, ptr %6, align 4, !tbaa !10
  br label %140

123:                                              ; preds = %117
  %124 = load i64, ptr %14, align 8, !tbaa !87
  %125 = icmp ne i64 %124, 0
  br i1 %125, label %127, label %126

126:                                              ; preds = %123
  store i64 9223372036854775807, ptr %14, align 8, !tbaa !87
  br label %127

127:                                              ; preds = %126, %123
  %128 = load i32, ptr %8, align 4, !tbaa !10
  %129 = load i64, ptr %14, align 8, !tbaa !87
  %130 = call i32 @Curl_socket_check(i32 noundef -1, i32 noundef -1, i32 noundef %128, i64 noundef %129)
  store i32 %130, ptr %18, align 4, !tbaa !10
  %131 = load i32, ptr %18, align 4, !tbaa !10
  %132 = icmp slt i32 %131, 0
  br i1 %132, label %133, label %134

133:                                              ; preds = %127
  store i32 55, ptr %6, align 4, !tbaa !10
  br label %140

134:                                              ; preds = %127
  %135 = load i32, ptr %18, align 4, !tbaa !10
  %136 = icmp ne i32 %135, 0
  br i1 %136, label %138, label %137

137:                                              ; preds = %134
  store i32 28, ptr %6, align 4, !tbaa !10
  br label %140

138:                                              ; preds = %134
  br label %139

139:                                              ; preds = %138
  br label %85

140:                                              ; preds = %137, %133, %122, %116, %114, %104, %89
  %141 = load ptr, ptr @Curl_cfree, align 8, !tbaa !86
  %142 = load ptr, ptr %13, align 8, !tbaa !82
  call void %141(ptr noundef %142)
  %143 = load i32, ptr %6, align 4, !tbaa !10
  %144 = icmp ne i32 %143, 0
  br i1 %144, label %148, label %145

145:                                              ; preds = %140
  %146 = load ptr, ptr %4, align 8, !tbaa !3
  %147 = call i32 @Curl_xfer_send(ptr noundef %146, ptr noundef @.str.4, i64 noundef 2, i1 noundef zeroext false, ptr noundef %16)
  store i32 %147, ptr %6, align 4, !tbaa !10
  br label %148

148:                                              ; preds = %145, %140
  %149 = load i32, ptr %6, align 4, !tbaa !10
  %150 = icmp ne i32 %149, 0
  br i1 %150, label %151, label %154

151:                                              ; preds = %148
  %152 = load ptr, ptr %4, align 8, !tbaa !3
  call void (ptr, ptr, ...) @Curl_failf(ptr noundef %152, ptr noundef @.str.5)
  %153 = load i32, ptr %6, align 4, !tbaa !10
  store i32 %153, ptr %3, align 4
  store i32 1, ptr %19, align 4
  br label %163

154:                                              ; preds = %148
  %155 = load ptr, ptr %4, align 8, !tbaa !3
  %156 = call i32 @Curl_client_write(ptr noundef %155, i32 noundef 4, ptr noundef @.str.4, i64 noundef 2)
  store i32 %156, ptr %6, align 4, !tbaa !10
  %157 = load i32, ptr %6, align 4, !tbaa !10
  %158 = icmp ne i32 %157, 0
  br i1 %158, label %159, label %161

159:                                              ; preds = %154
  %160 = load i32, ptr %6, align 4, !tbaa !10
  store i32 %160, ptr %3, align 4
  store i32 1, ptr %19, align 4
  br label %163

161:                                              ; preds = %154
  %162 = load ptr, ptr %4, align 8, !tbaa !3
  call void @Curl_xfer_setup1(ptr noundef %162, i32 noundef 1, i64 noundef -1, i1 noundef zeroext false)
  store i32 0, ptr %3, align 4
  store i32 1, ptr %19, align 4
  br label %163

163:                                              ; preds = %161, %159, %151, %79, %55
  call void @llvm.lifetime.end.p0(i64 4, ptr %18) #4
  call void @llvm.lifetime.end.p0(i64 8, ptr %17) #4
  call void @llvm.lifetime.end.p0(i64 8, ptr %16) #4
  call void @llvm.lifetime.end.p0(i64 8, ptr %15) #4
  call void @llvm.lifetime.end.p0(i64 8, ptr %14) #4
  call void @llvm.lifetime.end.p0(i64 8, ptr %13) #4
  call void @llvm.lifetime.end.p0(i64 8, ptr %12) #4
  call void @llvm.lifetime.end.p0(i64 8, ptr %11) #4
  call void @llvm.lifetime.end.p0(i64 8, ptr %10) #4
  call void @llvm.lifetime.end.p0(i64 8, ptr %9) #4
  call void @llvm.lifetime.end.p0(i64 4, ptr %8) #4
  call void @llvm.lifetime.end.p0(i64 8, ptr %7) #4
  call void @llvm.lifetime.end.p0(i64 4, ptr %6) #4
  %164 = load i32, ptr %3, align 4
  ret i32 %164
}