; Function Attrs: nounwind uwtable
define internal i32 @gopher_do(ptr noundef %0, ptr noundef writeonly captures(none) initializes((0, 1)) %1) #0 {
  %3 = alloca ptr, align 8
  %4 = alloca i64, align 8
  %5 = alloca i64, align 8
  %6 = getelementptr inbounds nuw i8, ptr %0, i64 24
  %7 = load ptr, ptr %6, align 8, !tbaa !3
  %8 = getelementptr inbounds nuw i8, ptr %7, i64 568
  %9 = load i32, ptr %8, align 8, !tbaa !75
  %10 = getelementptr inbounds nuw i8, ptr %0, i64 4616
  %11 = load ptr, ptr %10, align 8, !tbaa !76
  %12 = getelementptr inbounds nuw i8, ptr %0, i64 4624
  %13 = load ptr, ptr %12, align 8, !tbaa !77
  call void @llvm.lifetime.start.p0(i64 8, ptr nonnull %3) #5
  store ptr null, ptr %3, align 8, !tbaa !78
  call void @llvm.lifetime.start.p0(i64 8, ptr nonnull %4) #5
  call void @llvm.lifetime.start.p0(i64 8, ptr nonnull %5) #5
  store i8 1, ptr %1, align 1, !tbaa !79
  %.not = icmp eq ptr %13, null
  br i1 %.not, label %16, label %14

14:                                               ; preds = %2
  %15 = tail call ptr (ptr, ...) @curl_maprintf(ptr noundef nonnull @.str.2, ptr noundef %11, ptr noundef nonnull %13) #5
  br label %19

16:                                               ; preds = %2
  %17 = load ptr, ptr @Curl_cstrdup, align 8, !tbaa !81
  %18 = tail call ptr %17(ptr noundef %11) #5
  br label %19

19:                                               ; preds = %16, %14
  %.049 = phi ptr [ %15, %14 ], [ %18, %16 ]
  %.not57 = icmp eq ptr %.049, null
  br i1 %.not57, label %63, label %20

20:                                               ; preds = %19
  %21 = tail call i64 @strlen(ptr noundef nonnull dereferenceable(1) %.049) #6
  %22 = icmp ult i64 %21, 3
  br i1 %22, label %23, label %25

23:                                               ; preds = %20
  store ptr @.str.3, ptr %3, align 8, !tbaa !78
  store i64 0, ptr %5, align 8, !tbaa !82
  %24 = load ptr, ptr @Curl_cfree, align 8, !tbaa !81
  tail call void %24(ptr noundef nonnull %.049) #5
  br label %30

25:                                               ; preds = %20
  %26 = getelementptr inbounds nuw i8, ptr %.049, i64 2
  %27 = call i32 @Curl_urldecode(ptr noundef nonnull %26, i64 noundef 0, ptr noundef nonnull %3, ptr noundef nonnull %5, i32 noundef 4) #5
  %28 = load ptr, ptr @Curl_cfree, align 8, !tbaa !81
  call void %28(ptr noundef nonnull %.049) #5
  %.not58 = icmp eq i32 %27, 0
  br i1 %.not58, label %._crit_edge, label %63

._crit_edge:                                      ; preds = %25
  %29 = load ptr, ptr %3, align 8
  %.pre = load i64, ptr %5, align 8, !tbaa !82
  br label %30

30:                                               ; preds = %._crit_edge, %23
  %31 = phi i64 [ 0, %23 ], [ %.pre, %._crit_edge ]
  %.047 = phi ptr [ null, %23 ], [ %29, %._crit_edge ]
  %32 = call i64 @curlx_uztosz(i64 noundef %31) #5
  br label %33

33:                                               ; preds = %54, %30
  %.046 = phi i64 [ %32, %30 ], [ %44, %54 ]
  %34 = load ptr, ptr %3, align 8, !tbaa !78
  %char0 = load i8, ptr %34, align 1
  %35 = icmp eq i8 %char0, 0
  br i1 %35, label %56, label %36

36:                                               ; preds = %33
  %37 = call i32 @Curl_xfer_send(ptr noundef %0, ptr noundef nonnull %34, i64 noundef %.046, i1 noundef zeroext false, ptr noundef nonnull %4) #5
  %.not59 = icmp eq i32 %37, 0
  br i1 %.not59, label %38, label %.thread68

38:                                               ; preds = %36
  %39 = load ptr, ptr %3, align 8, !tbaa !78
  %40 = load i64, ptr %4, align 8, !tbaa !82
  %41 = call i32 @Curl_client_write(ptr noundef %0, i32 noundef 4, ptr noundef %39, i64 noundef %40) #5
  %.not60 = icmp eq i32 %41, 0
  br i1 %.not60, label %42, label %.thread68

42:                                               ; preds = %38
  %43 = load i64, ptr %4, align 8, !tbaa !82
  %44 = sub i64 %.046, %43
  %45 = load ptr, ptr %3, align 8, !tbaa !78
  %46 = getelementptr inbounds nuw i8, ptr %45, i64 %43
  store ptr %46, ptr %3, align 8, !tbaa !78
  %47 = icmp slt i64 %44, 1
  br i1 %47, label %56, label %48

48:                                               ; preds = %42
  %49 = call i64 @Curl_timeleft(ptr noundef %0, ptr noundef null, i1 noundef zeroext false) #5
  %50 = icmp slt i64 %49, 0
  br i1 %50, label %.thread68, label %51

51:                                               ; preds = %48
  %.not61 = icmp eq i64 %49, 0
  %spec.store.select = select i1 %.not61, i64 9223372036854775807, i64 %49
  %52 = call i32 @Curl_socket_check(i32 noundef -1, i32 noundef -1, i32 noundef %9, i64 noundef %spec.store.select) #5
  %53 = icmp slt i32 %52, 0
  br i1 %53, label %.thread68, label %54

54:                                               ; preds = %51
  %.not62 = icmp eq i32 %52, 0
  br i1 %.not62, label %.thread68, label %33

.thread68:                                        ; preds = %54, %51, %48, %38, %36
  %.2.ph = phi i32 [ 28, %54 ], [ 55, %51 ], [ 28, %48 ], [ %41, %38 ], [ %37, %36 ]
  %55 = load ptr, ptr @Curl_cfree, align 8, !tbaa !81
  call void %55(ptr noundef %.047) #5
  br label %59

56:                                               ; preds = %42, %33
  %57 = load ptr, ptr @Curl_cfree, align 8, !tbaa !81
  call void %57(ptr noundef %.047) #5
  %58 = call i32 @Curl_xfer_send(ptr noundef %0, ptr noundef nonnull @.str.4, i64 noundef 2, i1 noundef zeroext false, ptr noundef nonnull %4) #5
  %.not64 = icmp eq i32 %58, 0
  br i1 %.not64, label %60, label %59

59:                                               ; preds = %.thread68, %56
  %.371 = phi i32 [ %.2.ph, %.thread68 ], [ %58, %56 ]
  call void (ptr, ptr, ...) @Curl_failf(ptr noundef %0, ptr noundef nonnull @.str.5) #5
  br label %63

60:                                               ; preds = %56
  %61 = call i32 @Curl_client_write(ptr noundef %0, i32 noundef 4, ptr noundef nonnull @.str.4, i64 noundef 2) #5
  %.not65 = icmp eq i32 %61, 0
  br i1 %.not65, label %62, label %63

62:                                               ; preds = %60
  call void @Curl_xfer_setup1(ptr noundef %0, i32 noundef 1, i64 noundef -1, i1 noundef zeroext false) #5
  br label %63

63:                                               ; preds = %60, %19, %25, %62, %59
  %.0 = phi i32 [ %.371, %59 ], [ 0, %62 ], [ %27, %25 ], [ 27, %19 ], [ %61, %60 ]
  call void @llvm.lifetime.end.p0(i64 8, ptr nonnull %5) #5
  call void @llvm.lifetime.end.p0(i64 8, ptr nonnull %4) #5
  call void @llvm.lifetime.end.p0(i64 8, ptr nonnull %3) #5
  ret i32 %.0
}